; Function Attrs: mustprogress nounwind uwtable
define hidden void @_ZN6Assimp15IRRMeshImporterC2Ev(ptr noundef nonnull align 8 dereferenceable(112) %this) unnamed_addr #0 align 2 personality ptr @__gxx_personality_v0 {
invoke.cont:
  tail call void @_ZN6Assimp12BaseImporterC2Ev(ptr noundef nonnull align 8 dereferenceable(72) %this) #22
  %0 = getelementptr inbounds i8, ptr %this, i64 72
  %mData.i.i = getelementptr inbounds i8, ptr %this, i64 88
  tail call void @llvm.memset.p0.i64(ptr noundef nonnull align 8 dereferenceable(40) %0, i8 0, i64 40, i1 false)
  tail call void @_ZNSaIcEC2Ev(ptr noundef nonnull align 1 dereferenceable(1) %mData.i.i) #22
  tail call void @llvm.memset.p0.i64(ptr noundef nonnull align 8 dereferenceable(24) %mData.i.i, i8 0, i64 24, i1 false)
  store ptr getelementptr inbounds ({ [8 x ptr] }, ptr @_ZTVN6Assimp15IRRMeshImporterE, i64 0, i32 0, i64 2), ptr %this, align 8
  ret void
}